target datalayout = "e-m:e-p270:32:32-p271:32:32-p272:64:64-i64:64-i128:128-f80:128-n8:16:32:64-S128"
target triple = "x86_64-pc-linux-gnu"

%struct.PS_HintsRec_ = type { ptr, i32, i32, i32, [2 x %struct.PS_DimensionRec_] }
%struct.PS_DimensionRec_ = type { %struct.PS_Hint_TableRec_, %struct.PS_Mask_TableRec_, %struct.PS_Mask_TableRec_ }
%struct.PS_Hint_TableRec_ = type { i32, i32, ptr }
%struct.PS_Mask_TableRec_ = type { i32, i32, ptr }
%struct.PS_MaskRec_ = type { i32, i32, ptr, i32 }

; Function Attrs: nounwind uwtable
define internal i32 @ps_mask_table_ensure(ptr noundef %0, i32 noundef %1, ptr noundef %2) #0 {
  %4 = alloca ptr, align 8
  %5 = alloca i32, align 4
  %6 = alloca ptr, align 8
  %7 = alloca i32, align 4
  %8 = alloca i32, align 4
  %9 = alloca i32, align 4
  store ptr %0, ptr %4, align 8
  store i32 %1, ptr %5, align 4
  store ptr %2, ptr %6, align 8
  %10 = load ptr, ptr %4, align 8
  %11 = getelementptr inbounds %struct.PS_Mask_TableRec_, ptr %10, i32 0, i32 1
  %12 = load i32, ptr %11, align 4
  store i32 %12, ptr %7, align 4
  %13 = load i32, ptr %5, align 4
  store i32 %13, ptr %8, align 4
  store i32 0, ptr %9, align 4
  %14 = load i32, ptr %8, align 4
  %15 = load i32, ptr %7, align 4
  %16 = icmp ugt i32 %14, %15
  br i1 %16, label %17, label %40

17:                                               ; preds = %3
  %18 = load i32, ptr %8, align 4
  %19 = add i32 %18, 8
  %20 = sub i32 %19, 1
  %21 = and i32 %20, -8
  store i32 %21, ptr %8, align 4
  %22 = load ptr, ptr %6, align 8
  %23 = load i32, ptr %7, align 4
  %24 = zext i32 %23 to i64
  %25 = load i32, ptr %8, align 4
  %26 = zext i32 %25 to i64
  %27 = load ptr, ptr %4, align 8
  %28 = getelementptr inbounds %struct.PS_Mask_TableRec_, ptr %27, i32 0, i32 2
  %29 = load ptr, ptr %28, align 8
  %30 = call ptr @ft_mem_realloc(ptr noundef %22, i64 noundef 24, i64 noundef %24, i64 noundef %26, ptr noundef %29, ptr noundef %9)
  %31 = load ptr, ptr %4, align 8
  %32 = getelementptr inbounds %struct.PS_Mask_TableRec_, ptr %31, i32 0, i32 2
  store ptr %30, ptr %32, align 8
  %33 = load i32, ptr %9, align 4
  %34 = icmp ne i32 %33, 0
  br i1 %34, label %39, label %35

35:                                               ; preds = %17
  %36 = load i32, ptr %8, align 4
  %37 = load ptr, ptr %4, align 8
  %38 = getelementptr inbounds %struct.PS_Mask_TableRec_, ptr %37, i32 0, i32 1
  store i32 %36, ptr %38, align 4
  br label %39

39:                                               ; preds = %35, %17
  br label %40

40:                                               ; preds = %39, %3
  %41 = load i32, ptr %9, align 4
  ret i32 %41
}

; Function Attrs: nounwind uwtable
define internal i32 @ps_mask_table_alloc(ptr noundef %0, ptr noundef %1, ptr noundef %2) #0 {
  %4 = alloca ptr, align 8
  %5 = alloca ptr, align 8
  %6 = alloca ptr, align 8
  %7 = alloca i32, align 4
  %8 = alloca i32, align 4
  %9 = alloca ptr, align 8
  store ptr %0, ptr %4, align 8
  store ptr %1, ptr %5, align 8
  store ptr %2, ptr %6, align 8
  store i32 0, ptr %8, align 4
  store ptr null, ptr %9, align 8
  %10 = load ptr, ptr %4, align 8
  %11 = getelementptr inbounds %struct.PS_Mask_TableRec_, ptr %10, i32 0, i32 0
  %12 = load i32, ptr %11, align 8
  store i32 %12, ptr %7, align 4
  %13 = load i32, ptr %7, align 4
  %14 = add i32 %13, 1
  store i32 %14, ptr %7, align 4
  %15 = load i32, ptr %7, align 4
  %16 = load ptr, ptr %4, align 8
  %17 = getelementptr inbounds %struct.PS_Mask_TableRec_, ptr %16, i32 0, i32 1
  %18 = load i32, ptr %17, align 4
  %19 = icmp ugt i32 %15, %18
  br i1 %19, label %20, label %29

20:                                               ; preds = %3
  %21 = load ptr, ptr %4, align 8
  %22 = load i32, ptr %7, align 4
  %23 = load ptr, ptr %5, align 8
  %24 = call i32 @ps_mask_table_ensure(ptr noundef %21, i32 noundef %22, ptr noundef %23)
  store i32 %24, ptr %8, align 4
  %25 = load i32, ptr %8, align 4
  %26 = icmp ne i32 %25, 0
  br i1 %26, label %27, label %28

27:                                               ; preds = %20
  br label %58

28:                                               ; preds = %20
  br label %29

29:                                               ; preds = %28, %3
  %30 = load ptr, ptr %4, align 8
  %31 = getelementptr inbounds %struct.PS_Mask_TableRec_, ptr %30, i32 0, i32 2
  %32 = load ptr, ptr %31, align 8
  %33 = load i32, ptr %7, align 4
  %34 = zext i32 %33 to i64
  %35 = getelementptr inbounds %struct.PS_MaskRec_, ptr %32, i64 %34
  %36 = getelementptr inbounds %struct.PS_MaskRec_, ptr %35, i64 -1
  store ptr %36, ptr %9, align 8
  %37 = load ptr, ptr %9, align 8
  %38 = getelementptr inbounds %struct.PS_MaskRec_, ptr %37, i32 0, i32 0
  store i32 0, ptr %38, align 8
  %39 = load ptr, ptr %9, align 8
  %40 = getelementptr inbounds %struct.PS_MaskRec_, ptr %39, i32 0, i32 3
  store i32 0, ptr %40, align 8
  %41 = load ptr, ptr %9, align 8
  %42 = getelementptr inbounds %struct.PS_MaskRec_, ptr %41, i32 0, i32 1
  %43 = load i32, ptr %42, align 4
  %44 = icmp ne i32 %43, 0
  br i1 %44, label %45, label %54

45:                                               ; preds = %29
  %46 = load ptr, ptr %9, align 8
  %47 = getelementptr inbounds %struct.PS_MaskRec_, ptr %46, i32 0, i32 2
  %48 = load ptr, ptr %47, align 8
  %49 = load ptr, ptr %9, align 8
  %50 = getelementptr inbounds %struct.PS_MaskRec_, ptr %49, i32 0, i32 1
  %51 = load i32, ptr %50, align 4
  %52 = lshr i32 %51, 3
  %53 = zext i32 %52 to i64
  call void @llvm.memset.p0.i64(ptr align 1 %48, i8 0, i64 %53, i1 false)
  br label %54

54:                                               ; preds = %45, %29
  %55 = load i32, ptr %7, align 4
  %56 = load ptr, ptr %4, align 8
  %57 = getelementptr inbounds %struct.PS_Mask_TableRec_, ptr %56, i32 0, i32 0
  store i32 %55, ptr %57, align 8
  br label %58

58:                                               ; preds = %54, %27
  %59 = load ptr, ptr %9, align 8
  %60 = load ptr, ptr %6, align 8
  store ptr %59, ptr %60, align 8
  %61 = load i32, ptr %8, align 4
  ret i32 %61
}

; Function Attrs: nounwind uwtable
define internal void @ps_dimension_end_mask(ptr noundef %0, i32 noundef %1) #0 {
  %3 = alloca ptr, align 8
  %4 = alloca i32, align 4
  %5 = alloca i32, align 4
  %6 = alloca ptr, align 8
  store ptr %0, ptr %3, align 8
  store i32 %1, ptr %4, align 4
  %7 = load ptr, ptr %3, align 8
  %8 = getelementptr inbounds %struct.PS_DimensionRec_, ptr %7, i32 0, i32 1
  %9 = getelementptr inbounds %struct.PS_Mask_TableRec_, ptr %8, i32 0, i32 0
  %10 = load i32, ptr %9, align 8
  store i32 %10, ptr %5, align 4
  %11 = load i32, ptr %5, align 4
  %12 = icmp ugt i32 %11, 0
  br i1 %12, label %13, label %25

13:                                               ; preds = %2
  %14 = load ptr, ptr %3, align 8
  %15 = getelementptr inbounds %struct.PS_DimensionRec_, ptr %14, i32 0, i32 1
  %16 = getelementptr inbounds %struct.PS_Mask_TableRec_, ptr %15, i32 0, i32 2
  %17 = load ptr, ptr %16, align 8
  %18 = load i32, ptr %5, align 4
  %19 = zext i32 %18 to i64
  %20 = getelementptr inbounds %struct.PS_MaskRec_, ptr %17, i64 %19
  %21 = getelementptr inbounds %struct.PS_MaskRec_, ptr %20, i64 -1
  store ptr %21, ptr %6, align 8
  %22 = load i32, ptr %4, align 4
  %23 = load ptr, ptr %6, align 8
  %24 = getelementptr inbounds %struct.PS_MaskRec_, ptr %23, i32 0, i32 3
  store i32 %22, ptr %24, align 8
  br label %25

25:                                               ; preds = %13, %2
  ret void
}

; Function Attrs: nounwind uwtable
define internal i32 @ps_dimension_reset_mask(ptr noundef %0, i32 noundef %1, ptr noundef %2) #0 {
  %4 = alloca ptr, align 8
  %5 = alloca i32, align 4
  %6 = alloca ptr, align 8
  %7 = alloca ptr, align 8
  store ptr %0, ptr %4, align 8
  store i32 %1, ptr %5, align 4
  store ptr %2, ptr %6, align 8
  %8 = load ptr, ptr %4, align 8
  %9 = load i32, ptr %5, align 4
  call void @ps_dimension_end_mask(ptr noundef %8, i32 noundef %9)
  %10 = load ptr, ptr %4, align 8
  %11 = getelementptr inbounds %struct.PS_DimensionRec_, ptr %10, i32 0, i32 1
  %12 = load ptr, ptr %6, align 8
  %13 = call i32 @ps_mask_table_alloc(ptr noundef %11, ptr noundef %12, ptr noundef %7)
  ret i32 %13
}

; Function Attrs: nounwind uwtable
define internal void @ps_hints_t1reset(ptr noundef %0, i32 noundef %1) #0 {
  %3 = alloca ptr, align 8
  %4 = alloca i32, align 4
  %5 = alloca ptr, align 8
  %6 = alloca i32, align 4
  %7 = alloca ptr, align 8
  store ptr %0, ptr %3, align 8
  store i32 %1, ptr %4, align 4
  %8 = load ptr, ptr %3, align 8
  store ptr %8, ptr %5, align 8
  store i32 0, ptr %6, align 4
  %9 = load ptr, ptr %5, align 8
  %10 = getelementptr inbounds %struct.PS_HintsRec_, ptr %9, i32 0, i32 1
  %11 = load i32, ptr %10, align 8
  %12 = icmp ne i32 %11, 0
  br i1 %12, label %44, label %13

13:                                               ; preds = %2
  %14 = load ptr, ptr %5, align 8
  %15 = getelementptr inbounds %struct.PS_HintsRec_, ptr %14, i32 0, i32 0
  %16 = load ptr, ptr %15, align 8
  store ptr %16, ptr %7, align 8
  %17 = load ptr, ptr %5, align 8
  %18 = getelementptr inbounds %struct.PS_HintsRec_, ptr %17, i32 0, i32 3
  %19 = load i32, ptr %18, align 8
  %20 = icmp eq i32 %19, 1
  br i1 %20, label %21, label %42

21:                                               ; preds = %13
  %22 = load ptr, ptr %5, align 8
  %23 = getelementptr inbounds %struct.PS_HintsRec_, ptr %22, i32 0, i32 4
  %24 = getelementptr inbounds [2 x %struct.PS_DimensionRec_], ptr %23, i64 0, i64 0
  %25 = load i32, ptr %4, align 4
  %26 = load ptr, ptr %7, align 8
  %27 = call i32 @ps_dimension_reset_mask(ptr noundef %24, i32 noundef %25, ptr noundef %26)
  store i32 %27, ptr %6, align 4
  %28 = load i32, ptr %6, align 4
  %29 = icmp ne i32 %28, 0
  br i1 %29, label %30, label %31

30:                                               ; preds = %21
  br label %45

31:                                               ; preds = %21
  %32 = load ptr, ptr %5, align 8
  %33 = getelementptr inbounds %struct.PS_HintsRec_, ptr %32, i32 0, i32 4
  %34 = getelementptr inbounds [2 x %struct.PS_DimensionRec_], ptr %33, i64 0, i64 1
  %35 = load i32, ptr %4, align 4
  %36 = load ptr, ptr %7, align 8
  %37 = call i32 @ps_dimension_reset_mask(ptr noundef %34, i32 noundef %35, ptr noundef %36)
  store i32 %37, ptr %6, align 4
  %38 = load i32, ptr %6, align 4
  %39 = icmp ne i32 %38, 0
  br i1 %39, label %40, label %41

40:                                               ; preds = %31
  br label %45

41:                                               ; preds = %31
  br label %43

42:                                               ; preds = %13
  store i32 6, ptr %6, align 4
  br label %45

43:                                               ; preds = %41
  br label %44

44:                                               ; preds = %43, %2
  br label %49

45:                                               ; preds = %42, %40, %30
  %46 = load i32, ptr %6, align 4
  %47 = load ptr, ptr %5, align 8
  %48 = getelementptr inbounds %struct.PS_HintsRec_, ptr %47, i32 0, i32 1
  store i32 %46, ptr %48, align 8
  br label %49

49:                                               ; preds = %45, %44
  ret void
}