; Function Attrs: nounwind uwtable
define internal void @ps_hints_t1reset(ptr nocapture noundef %0, i32 noundef %1) #0 {
  %3 = alloca i32, align 4
  %4 = alloca i32, align 4
  %5 = getelementptr inbounds i8, ptr %0, i64 8
  %6 = load i32, ptr %5, align 8
  %.not = icmp eq i32 %6, 0
  br i1 %.not, label %7, label %85

7:                                                ; preds = %2
  %8 = load ptr, ptr %0, align 8
  %9 = getelementptr inbounds i8, ptr %0, i64 16
  %10 = load i32, ptr %9, align 8
  %11 = icmp eq i32 %10, 1
  br i1 %11, label %12, label %84

12:                                               ; preds = %7
  %13 = getelementptr inbounds i8, ptr %0, i64 40
  %14 = load i32, ptr %13, align 8
  %.not.i.i = icmp eq i32 %14, 0
  br i1 %.not.i.i, label %ps_dimension_end_mask.exit.i, label %15

15:                                               ; preds = %12
  %16 = getelementptr inbounds i8, ptr %0, i64 48
  %17 = load ptr, ptr %16, align 8
  %18 = zext i32 %14 to i64
  %19 = getelementptr inbounds %struct.PS_MaskRec_, ptr %17, i64 %18
  %20 = getelementptr inbounds i8, ptr %19, i64 -8
  store i32 %1, ptr %20, align 8
  %.pre.i = load i32, ptr %13, align 8
  br label %ps_dimension_end_mask.exit.i

ps_dimension_end_mask.exit.i:                     ; preds = %15, %12
  %21 = phi i32 [ 0, %12 ], [ %.pre.i, %15 ]
  %22 = add i32 %21, 1
  %23 = getelementptr inbounds i8, ptr %0, i64 44
  %24 = load i32, ptr %23, align 4
  %25 = icmp ugt i32 %22, %24
  br i1 %25, label %26, label %._crit_edge.i.i

._crit_edge.i.i:                                  ; preds = %ps_dimension_end_mask.exit.i
  %.phi.trans.insert.i.i = getelementptr inbounds i8, ptr %0, i64 48
  %.pre.i.i = load ptr, ptr %.phi.trans.insert.i.i, align 8
  br label %35

26:                                               ; preds = %ps_dimension_end_mask.exit.i
  call void @llvm.lifetime.start.p0(i64 4, ptr nonnull %4)
  store i32 0, ptr %4, align 4
  %27 = and i32 %21, -8
  %28 = add i32 %27, 8
  %29 = zext i32 %24 to i64
  %30 = zext i32 %28 to i64
  %31 = getelementptr inbounds i8, ptr %0, i64 48
  %32 = load ptr, ptr %31, align 8
  %33 = call ptr @ft_mem_realloc(ptr noundef %8, i64 noundef 24, i64 noundef %29, i64 noundef %30, ptr noundef %32, ptr noundef nonnull %4) #11
  store ptr %33, ptr %31, align 8
  %34 = load i32, ptr %4, align 4
  %.not.i.i.i = icmp eq i32 %34, 0
  br i1 %.not.i.i.i, label %ps_mask_table_ensure.exit.thread.i.i, label %ps_dimension_reset_mask.exit

ps_mask_table_ensure.exit.thread.i.i:             ; preds = %26
  store i32 %28, ptr %23, align 4
  call void @llvm.lifetime.end.p0(i64 4, ptr nonnull %4)
  br label %35

35:                                               ; preds = %ps_mask_table_ensure.exit.thread.i.i, %._crit_edge.i.i
  %36 = phi ptr [ %.pre.i.i, %._crit_edge.i.i ], [ %33, %ps_mask_table_ensure.exit.thread.i.i ]
  %37 = zext i32 %22 to i64
  %38 = getelementptr inbounds %struct.PS_MaskRec_, ptr %36, i64 %37
  %39 = getelementptr inbounds i8, ptr %38, i64 -24
  store i32 0, ptr %39, align 8
  %40 = getelementptr inbounds i8, ptr %38, i64 -8
  store i32 0, ptr %40, align 8
  %41 = getelementptr inbounds i8, ptr %38, i64 -20
  %42 = load i32, ptr %41, align 4
  %.not24.i.i = icmp eq i32 %42, 0
  br i1 %.not24.i.i, label %48, label %43

43:                                               ; preds = %35
  %44 = getelementptr inbounds i8, ptr %38, i64 -16
  %45 = load ptr, ptr %44, align 8
  %46 = lshr i32 %42, 3
  %47 = zext nneg i32 %46 to i64
  call void @llvm.memset.p0.i64(ptr align 1 %45, i8 0, i64 %47, i1 false)
  br label %48

ps_dimension_reset_mask.exit:                     ; preds = %26
  call void @llvm.lifetime.end.p0(i64 4, ptr nonnull %4)
  br label %84

48:                                               ; preds = %35, %43
  store i32 %22, ptr %13, align 8
  %49 = getelementptr inbounds i8, ptr %0, i64 88
  %50 = load i32, ptr %49, align 8
  %.not.i.i17 = icmp eq i32 %50, 0
  br i1 %.not.i.i17, label %ps_dimension_end_mask.exit.i19, label %51

51:                                               ; preds = %48
  %52 = getelementptr inbounds i8, ptr %0, i64 96
  %53 = load ptr, ptr %52, align 8
  %54 = zext i32 %50 to i64
  %55 = getelementptr inbounds %struct.PS_MaskRec_, ptr %53, i64 %54
  %56 = getelementptr inbounds i8, ptr %55, i64 -8
  store i32 %1, ptr %56, align 8
  %.pre.i18 = load i32, ptr %49, align 8
  br label %ps_dimension_end_mask.exit.i19

ps_dimension_end_mask.exit.i19:                   ; preds = %51, %48
  %57 = phi i32 [ 0, %48 ], [ %.pre.i18, %51 ]
  %58 = add i32 %57, 1
  %59 = getelementptr inbounds i8, ptr %0, i64 92
  %60 = load i32, ptr %59, align 4
  %61 = icmp ugt i32 %58, %60
  br i1 %61, label %62, label %._crit_edge.i.i20

._crit_edge.i.i20:                                ; preds = %ps_dimension_end_mask.exit.i19
  %.phi.trans.insert.i.i21 = getelementptr inbounds i8, ptr %0, i64 96
  %.pre.i.i22 = load ptr, ptr %.phi.trans.insert.i.i21, align 8
  br label %71

62:                                               ; preds = %ps_dimension_end_mask.exit.i19
  call void @llvm.lifetime.start.p0(i64 4, ptr nonnull %3)
  store i32 0, ptr %3, align 4
  %63 = and i32 %57, -8
  %64 = add i32 %63, 8
  %65 = zext i32 %60 to i64
  %66 = zext i32 %64 to i64
  %67 = getelementptr inbounds i8, ptr %0, i64 96
  %68 = load ptr, ptr %67, align 8
  %69 = call ptr @ft_mem_realloc(ptr noundef %8, i64 noundef 24, i64 noundef %65, i64 noundef %66, ptr noundef %68, ptr noundef nonnull %3) #11
  store ptr %69, ptr %67, align 8
  %70 = load i32, ptr %3, align 4
  %.not.i.i.i25 = icmp eq i32 %70, 0
  br i1 %.not.i.i.i25, label %ps_mask_table_ensure.exit.thread.i.i27, label %ps_dimension_reset_mask.exit28

ps_mask_table_ensure.exit.thread.i.i27:           ; preds = %62
  store i32 %64, ptr %59, align 4
  call void @llvm.lifetime.end.p0(i64 4, ptr nonnull %3)
  br label %71

71:                                               ; preds = %ps_mask_table_ensure.exit.thread.i.i27, %._crit_edge.i.i20
  %72 = phi ptr [ %.pre.i.i22, %._crit_edge.i.i20 ], [ %69, %ps_mask_table_ensure.exit.thread.i.i27 ]
  %73 = zext i32 %58 to i64
  %74 = getelementptr inbounds %struct.PS_MaskRec_, ptr %72, i64 %73
  %75 = getelementptr inbounds i8, ptr %74, i64 -24
  store i32 0, ptr %75, align 8
  %76 = getelementptr inbounds i8, ptr %74, i64 -8
  store i32 0, ptr %76, align 8
  %77 = getelementptr inbounds i8, ptr %74, i64 -20
  %78 = load i32, ptr %77, align 4
  %.not24.i.i23 = icmp eq i32 %78, 0
  br i1 %.not24.i.i23, label %ps_dimension_reset_mask.exit28.thread, label %79

79:                                               ; preds = %71
  %80 = getelementptr inbounds i8, ptr %74, i64 -16
  %81 = load ptr, ptr %80, align 8
  %82 = lshr i32 %78, 3
  %83 = zext nneg i32 %82 to i64
  call void @llvm.memset.p0.i64(ptr align 1 %81, i8 0, i64 %83, i1 false)
  br label %ps_dimension_reset_mask.exit28.thread

ps_dimension_reset_mask.exit28.thread:            ; preds = %71, %79
  store i32 %58, ptr %49, align 8
  br label %85

ps_dimension_reset_mask.exit28:                   ; preds = %62
  call void @llvm.lifetime.end.p0(i64 4, ptr nonnull %3)
  br label %84

84:                                               ; preds = %ps_dimension_reset_mask.exit28, %ps_dimension_reset_mask.exit, %7
  %.0 = phi i32 [ %34, %ps_dimension_reset_mask.exit ], [ %70, %ps_dimension_reset_mask.exit28 ], [ 6, %7 ]
  store i32 %.0, ptr %5, align 8
  br label %85

85:                                               ; preds = %ps_dimension_reset_mask.exit28.thread, %2, %84
  ret void
}